; Function Attrs: mustprogress uwtable
define void @_ZNK5arrow2io20SlowRandomAccessFile4TellEv(ptr dead_on_unwind noalias writable sret(%"class.arrow::Result") align 8 %0, ptr noundef nonnull readonly align 8 captures(none) dereferenceable(56) %1) unnamed_addr #2 align 2 {
  %3 = getelementptr inbounds nuw i8, ptr %1, i64 24
  %4 = load ptr, ptr %3, align 8, !tbaa !61
  %5 = load ptr, ptr %4, align 8, !tbaa !3
  %6 = getelementptr i8, ptr %5, i64 -56
  %7 = load i64, ptr %6, align 8
  %8 = getelementptr inbounds i8, ptr %4, i64 %7
  %9 = load ptr, ptr %8, align 8, !tbaa !3
  %10 = getelementptr inbounds nuw i8, ptr %9, i64 40
  %11 = load ptr, ptr %10, align 8
  tail call void %11(ptr dead_on_unwind writable sret(%"class.arrow::Result") align 8 %0, ptr noundef nonnull align 8 dereferenceable(28) %8)
  ret void
}